target datalayout = "e-m:e-p270:32:32-p271:32:32-p272:64:64-i64:64-i128:128-f80:128-n8:16:32:64-S128"
target triple = "x86_64-pc-linux-gnu"

; Function Attrs: nounwind uwtable
define i32 @scram_SaltedPassword(ptr noundef %0, i32 noundef %1, i32 noundef %2, ptr noundef %3, i32 noundef %4, i32 noundef %5, ptr noundef %6, ptr noundef %7) #0 {
  %9 = alloca i32, align 4
  %10 = alloca ptr, align 8
  %11 = alloca i32, align 4
  %12 = alloca i32, align 4
  %13 = alloca ptr, align 8
  %14 = alloca i32, align 4
  %15 = alloca i32, align 4
  %16 = alloca ptr, align 8
  %17 = alloca ptr, align 8
  %18 = alloca i32, align 4
  %19 = alloca i32, align 4
  %20 = alloca i32, align 4
  %21 = alloca i32, align 4
  %22 = alloca [32 x i8], align 16
  %23 = alloca [32 x i8], align 16
  %24 = alloca ptr, align 8
  %25 = alloca i32, align 4
  store ptr %0, ptr %10, align 8
  store i32 %1, ptr %11, align 4
  store i32 %2, ptr %12, align 4
  store ptr %3, ptr %13, align 8
  store i32 %4, ptr %14, align 4
  store i32 %5, ptr %15, align 4
  store ptr %6, ptr %16, align 8
  store ptr %7, ptr %17, align 8
  call void @llvm.lifetime.start.p0(i64 4, ptr %18) #7
  %26 = load ptr, ptr %10, align 8
  %27 = call i64 @strlen(ptr noundef %26) #8
  %28 = trunc i64 %27 to i32
  store i32 %28, ptr %18, align 4
  call void @llvm.lifetime.start.p0(i64 4, ptr %19) #7
  store i32 16777216, ptr %19, align 4
  call void @llvm.lifetime.start.p0(i64 4, ptr %20) #7
  call void @llvm.lifetime.start.p0(i64 4, ptr %21) #7
  call void @llvm.lifetime.start.p0(i64 32, ptr %22) #7
  call void @llvm.lifetime.start.p0(i64 32, ptr %23) #7
  call void @llvm.lifetime.start.p0(i64 8, ptr %24) #7
  %29 = load i32, ptr %11, align 4
  %30 = call ptr @pg_hmac_create(i32 noundef %29)
  store ptr %30, ptr %24, align 8
  %31 = load ptr, ptr %24, align 8
  %32 = icmp eq ptr %31, null
  br i1 %32, label %33, label %36

33:                                               ; preds = %8
  %34 = call ptr @pg_hmac_error(ptr noundef null)
  %35 = load ptr, ptr %17, align 8
  store ptr %34, ptr %35, align 8
  store i32 -1, ptr %9, align 4
  store i32 1, ptr %25, align 4
  br label %133

36:                                               ; preds = %8
  %37 = load ptr, ptr %24, align 8
  %38 = load ptr, ptr %10, align 8
  %39 = load i32, ptr %18, align 4
  %40 = sext i32 %39 to i64
  %41 = call i32 @pg_hmac_init(ptr noundef %37, ptr noundef %38, i64 noundef %40)
  %42 = icmp slt i32 %41, 0
  br i1 %42, label %61, label %43

43:                                               ; preds = %36
  %44 = load ptr, ptr %24, align 8
  %45 = load ptr, ptr %13, align 8
  %46 = load i32, ptr %14, align 4
  %47 = sext i32 %46 to i64
  %48 = call i32 @pg_hmac_update(ptr noundef %44, ptr noundef %45, i64 noundef %47)
  %49 = icmp slt i32 %48, 0
  br i1 %49, label %61, label %50

50:                                               ; preds = %43
  %51 = load ptr, ptr %24, align 8
  %52 = call i32 @pg_hmac_update(ptr noundef %51, ptr noundef %19, i64 noundef 4)
  %53 = icmp slt i32 %52, 0
  br i1 %53, label %61, label %54

54:                                               ; preds = %50
  %55 = load ptr, ptr %24, align 8
  %56 = getelementptr inbounds [32 x i8], ptr %23, i64 0, i64 0
  %57 = load i32, ptr %12, align 4
  %58 = sext i32 %57 to i64
  %59 = call i32 @pg_hmac_final(ptr noundef %55, ptr noundef %56, i64 noundef %58)
  %60 = icmp slt i32 %59, 0
  br i1 %60, label %61, label %66

61:                                               ; preds = %54, %50, %43, %36
  %62 = load ptr, ptr %24, align 8
  %63 = call ptr @pg_hmac_error(ptr noundef %62)
  %64 = load ptr, ptr %17, align 8
  store ptr %63, ptr %64, align 8
  %65 = load ptr, ptr %24, align 8
  call void @pg_hmac_free(ptr noundef %65)
  store i32 -1, ptr %9, align 4
  store i32 1, ptr %25, align 4
  br label %133

66:                                               ; preds = %54
  %67 = load ptr, ptr %16, align 8
  %68 = getelementptr inbounds [32 x i8], ptr %23, i64 0, i64 0
  %69 = load i32, ptr %12, align 4
  %70 = sext i32 %69 to i64
  call void @llvm.memcpy.p0.p0.i64(ptr align 1 %67, ptr align 16 %68, i64 %70, i1 false)
  store i32 2, ptr %20, align 4
  br label %71

71:                                               ; preds = %128, %66
  %72 = load i32, ptr %20, align 4
  %73 = load i32, ptr %15, align 4
  %74 = icmp sle i32 %72, %73
  br i1 %74, label %75, label %131

75:                                               ; preds = %71
  %76 = load ptr, ptr %24, align 8
  %77 = load ptr, ptr %10, align 8
  %78 = load i32, ptr %18, align 4
  %79 = sext i32 %78 to i64
  %80 = call i32 @pg_hmac_init(ptr noundef %76, ptr noundef %77, i64 noundef %79)
  %81 = icmp slt i32 %80, 0
  br i1 %81, label %96, label %82

82:                                               ; preds = %75
  %83 = load ptr, ptr %24, align 8
  %84 = getelementptr inbounds [32 x i8], ptr %23, i64 0, i64 0
  %85 = load i32, ptr %12, align 4
  %86 = sext i32 %85 to i64
  %87 = call i32 @pg_hmac_update(ptr noundef %83, ptr noundef %84, i64 noundef %86)
  %88 = icmp slt i32 %87, 0
  br i1 %88, label %96, label %89

89:                                               ; preds = %82
  %90 = load ptr, ptr %24, align 8
  %91 = getelementptr inbounds [32 x i8], ptr %22, i64 0, i64 0
  %92 = load i32, ptr %12, align 4
  %93 = sext i32 %92 to i64
  %94 = call i32 @pg_hmac_final(ptr noundef %90, ptr noundef %91, i64 noundef %93)
  %95 = icmp slt i32 %94, 0
  br i1 %95, label %96, label %101

96:                                               ; preds = %89, %82, %75
  %97 = load ptr, ptr %24, align 8
  %98 = call ptr @pg_hmac_error(ptr noundef %97)
  %99 = load ptr, ptr %17, align 8
  store ptr %98, ptr %99, align 8
  %100 = load ptr, ptr %24, align 8
  call void @pg_hmac_free(ptr noundef %100)
  store i32 -1, ptr %9, align 4
  store i32 1, ptr %25, align 4
  br label %133

101:                                              ; preds = %89
  store i32 0, ptr %21, align 4
  br label %102

102:                                              ; preds = %120, %101
  %103 = load i32, ptr %21, align 4
  %104 = load i32, ptr %12, align 4
  %105 = icmp slt i32 %103, %104
  br i1 %105, label %106, label %123

106:                                              ; preds = %102
  %107 = load i32, ptr %21, align 4
  %108 = sext i32 %107 to i64
  %109 = getelementptr inbounds [32 x i8], ptr %22, i64 0, i64 %108
  %110 = load i8, ptr %109, align 1
  %111 = zext i8 %110 to i32
  %112 = load ptr, ptr %16, align 8
  %113 = load i32, ptr %21, align 4
  %114 = sext i32 %113 to i64
  %115 = getelementptr inbounds i8, ptr %112, i64 %114
  %116 = load i8, ptr %115, align 1
  %117 = zext i8 %116 to i32
  %118 = xor i32 %117, %111
  %119 = trunc i32 %118 to i8
  store i8 %119, ptr %115, align 1
  br label %120

120:                                              ; preds = %106
  %121 = load i32, ptr %21, align 4
  %122 = add i32 %121, 1
  store i32 %122, ptr %21, align 4
  br label %102, !llvm.loop !3

123:                                              ; preds = %102
  %124 = getelementptr inbounds [32 x i8], ptr %23, i64 0, i64 0
  %125 = getelementptr inbounds [32 x i8], ptr %22, i64 0, i64 0
  %126 = load i32, ptr %12, align 4
  %127 = sext i32 %126 to i64
  call void @llvm.memcpy.p0.p0.i64(ptr align 16 %124, ptr align 16 %125, i64 %127, i1 false)
  br label %128

128:                                              ; preds = %123
  %129 = load i32, ptr %20, align 4
  %130 = add i32 %129, 1
  store i32 %130, ptr %20, align 4
  br label %71, !llvm.loop !5

131:                                              ; preds = %71
  %132 = load ptr, ptr %24, align 8
  call void @pg_hmac_free(ptr noundef %132)
  store i32 0, ptr %9, align 4
  store i32 1, ptr %25, align 4
  br label %133

133:                                              ; preds = %131, %96, %61, %33
  call void @llvm.lifetime.end.p0(i64 8, ptr %24) #7
  call void @llvm.lifetime.end.p0(i64 32, ptr %23) #7
  call void @llvm.lifetime.end.p0(i64 32, ptr %22) #7
  call void @llvm.lifetime.end.p0(i64 4, ptr %21) #7
  call void @llvm.lifetime.end.p0(i64 4, ptr %20) #7
  call void @llvm.lifetime.end.p0(i64 4, ptr %19) #7
  call void @llvm.lifetime.end.p0(i64 4, ptr %18) #7
  %134 = load i32, ptr %9, align 4
  ret i32 %134
}