; Function Attrs: nounwind uwtable
define range(i32 -1, 1) i32 @scram_SaltedPassword(ptr noundef %0, i32 noundef %1, i32 noundef %2, ptr noundef %3, i32 noundef %4, i32 noundef %5, ptr noundef captures(none) %6, ptr noundef writeonly captures(none) %7) local_unnamed_addr #0 {
  %9 = alloca i32, align 4
  %10 = alloca [32 x i8], align 16
  %11 = alloca [32 x i8], align 16
  %12 = tail call i64 @strlen(ptr noundef nonnull dereferenceable(1) %0) #7
  call void @llvm.lifetime.start.p0(i64 4, ptr nonnull %9) #8
  store i32 16777216, ptr %9, align 4
  call void @llvm.lifetime.start.p0(i64 32, ptr nonnull %10) #8
  call void @llvm.lifetime.start.p0(i64 32, ptr nonnull %11) #8
  %13 = tail call ptr @pg_hmac_create(i32 noundef %1) #8
  %14 = icmp eq ptr %13, null
  br i1 %14, label %15, label %17

15:                                               ; preds = %8
  %16 = tail call ptr @pg_hmac_error(ptr noundef null) #8
  store ptr %16, ptr %7, align 8
  br label %60

17:                                               ; preds = %8
  %sext = shl i64 %12, 32
  %18 = ashr exact i64 %sext, 32
  %19 = tail call i32 @pg_hmac_init(ptr noundef nonnull %13, ptr noundef nonnull %0, i64 noundef %18) #8
  %20 = icmp slt i32 %19, 0
  br i1 %20, label %32, label %21

21:                                               ; preds = %17
  %22 = sext i32 %4 to i64
  %23 = tail call i32 @pg_hmac_update(ptr noundef nonnull %13, ptr noundef %3, i64 noundef %22) #8
  %24 = icmp slt i32 %23, 0
  br i1 %24, label %32, label %25

25:                                               ; preds = %21
  %26 = call i32 @pg_hmac_update(ptr noundef nonnull %13, ptr noundef nonnull %9, i64 noundef 4) #8
  %27 = icmp slt i32 %26, 0
  br i1 %27, label %32, label %28

28:                                               ; preds = %25
  %29 = sext i32 %2 to i64
  %30 = call i32 @pg_hmac_final(ptr noundef nonnull %13, ptr noundef nonnull %11, i64 noundef %29) #8
  %31 = icmp slt i32 %30, 0
  br i1 %31, label %32, label %34

32:                                               ; preds = %28, %25, %21, %17
  %33 = call ptr @pg_hmac_error(ptr noundef nonnull %13) #8
  store ptr %33, ptr %7, align 8
  call void @pg_hmac_free(ptr noundef nonnull %13) #8
  br label %60

34:                                               ; preds = %28
  call void @llvm.memcpy.p0.p0.i64(ptr align 1 %6, ptr nonnull align 16 %11, i64 %29, i1 false)
  %.not43 = icmp slt i32 %5, 2
  br i1 %.not43, label %._crit_edge47, label %.lr.ph46

.lr.ph46:                                         ; preds = %34
  %35 = icmp sgt i32 %2, 0
  br i1 %35, label %.lr.ph46.split.us.preheader, label %.lr.ph46.split

.lr.ph46.split.us.preheader:                      ; preds = %.lr.ph46
  %wide.trip.count = zext nneg i32 %2 to i64
  br label %.lr.ph46.split.us

.lr.ph46.split.us:                                ; preds = %.lr.ph46.split.us.preheader, %._crit_edge.us
  %.04044.us = phi i32 [ %49, %._crit_edge.us ], [ 2, %.lr.ph46.split.us.preheader ]
  %36 = call i32 @pg_hmac_init(ptr noundef nonnull %13, ptr noundef nonnull %0, i64 noundef %18) #8
  %37 = icmp slt i32 %36, 0
  br i1 %37, label %.split.us, label %38

38:                                               ; preds = %.lr.ph46.split.us
  %39 = call i32 @pg_hmac_update(ptr noundef nonnull %13, ptr noundef nonnull %11, i64 noundef %29) #8
  %40 = icmp slt i32 %39, 0
  br i1 %40, label %.split.us, label %41

41:                                               ; preds = %38
  %42 = call i32 @pg_hmac_final(ptr noundef nonnull %13, ptr noundef nonnull %10, i64 noundef %29) #8
  %43 = icmp slt i32 %42, 0
  br i1 %43, label %.split.us, label %.preheader.us

.preheader.us:                                    ; preds = %41, %.preheader.us
  %indvars.iv = phi i64 [ %indvars.iv.next, %.preheader.us ], [ 0, %41 ]
  %44 = getelementptr inbounds nuw [32 x i8], ptr %10, i64 0, i64 %indvars.iv
  %45 = load i8, ptr %44, align 1
  %46 = getelementptr inbounds nuw i8, ptr %6, i64 %indvars.iv
  %47 = load i8, ptr %46, align 1
  %48 = xor i8 %47, %45
  store i8 %48, ptr %46, align 1
  %indvars.iv.next = add nuw nsw i64 %indvars.iv, 1
  %exitcond.not = icmp eq i64 %indvars.iv.next, %wide.trip.count
  br i1 %exitcond.not, label %._crit_edge.us, label %.preheader.us, !llvm.loop !3

._crit_edge.us:                                   ; preds = %.preheader.us
  call void @llvm.memcpy.p0.p0.i64(ptr nonnull align 16 %11, ptr nonnull align 16 %10, i64 %29, i1 false)
  %49 = add i32 %.04044.us, 1
  %.not.us = icmp sgt i32 %49, %5
  br i1 %.not.us, label %._crit_edge47, label %.lr.ph46.split.us, !llvm.loop !5

.lr.ph46.split:                                   ; preds = %.lr.ph46, %.preheader
  %.04044 = phi i32 [ %58, %.preheader ], [ 2, %.lr.ph46 ]
  %50 = call i32 @pg_hmac_init(ptr noundef nonnull %13, ptr noundef nonnull %0, i64 noundef %18) #8
  %51 = icmp slt i32 %50, 0
  br i1 %51, label %.split.us, label %52

52:                                               ; preds = %.lr.ph46.split
  %53 = call i32 @pg_hmac_update(ptr noundef nonnull %13, ptr noundef nonnull %11, i64 noundef %29) #8
  %54 = icmp slt i32 %53, 0
  br i1 %54, label %.split.us, label %55

55:                                               ; preds = %52
  %56 = call i32 @pg_hmac_final(ptr noundef nonnull %13, ptr noundef nonnull %10, i64 noundef %29) #8
  %57 = icmp slt i32 %56, 0
  br i1 %57, label %.split.us, label %.preheader

.preheader:                                       ; preds = %55
  call void @llvm.memcpy.p0.p0.i64(ptr nonnull align 16 %11, ptr nonnull align 16 %10, i64 %29, i1 false)
  %58 = add i32 %.04044, 1
  %.not = icmp sgt i32 %58, %5
  br i1 %.not, label %._crit_edge47, label %.lr.ph46.split, !llvm.loop !5

.split.us:                                        ; preds = %.lr.ph46.split, %52, %55, %.lr.ph46.split.us, %38, %41
  %59 = call ptr @pg_hmac_error(ptr noundef nonnull %13) #8
  store ptr %59, ptr %7, align 8
  call void @pg_hmac_free(ptr noundef nonnull %13) #8
  br label %60

._crit_edge47:                                    ; preds = %.preheader, %._crit_edge.us, %34
  call void @pg_hmac_free(ptr noundef nonnull %13) #8
  br label %60

60:                                               ; preds = %._crit_edge47, %.split.us, %32, %15
  %.0 = phi i32 [ -1, %15 ], [ -1, %32 ], [ -1, %.split.us ], [ 0, %._crit_edge47 ]
  call void @llvm.lifetime.end.p0(i64 32, ptr nonnull %11) #8
  call void @llvm.lifetime.end.p0(i64 32, ptr nonnull %10) #8
  call void @llvm.lifetime.end.p0(i64 4, ptr nonnull %9) #8
  ret i32 %.0
}